target datalayout = "e-m:e-p270:32:32-p271:32:32-p272:64:64-i64:64-i128:128-f80:128-n8:16:32:64-S128"
target triple = "x86_64-pc-linux-gnu"

%struct.Map_MatchStruct_t_ = type { ptr, i32, i32, ptr, %struct.Map_TimeStruct_t_, float }
%struct.Map_TimeStruct_t_ = type { float, float, float }
%struct.Map_ManStruct_t_ = type { ptr, i32, ptr, i32, ptr, i32, i32, ptr, ptr, ptr, ptr, ptr, ptr, ptr, ptr, i32, i32, i32, i32, float, float, float, float, i32, i32, float, i32, i32, i32, i32, ptr, [6 x [2 x i32]], [10 x [32 x i32]], [32 x i32], [32 x i32], ptr, ptr, ptr, ptr, ptr, ptr, i32, i32, i32, i32, i32, i32, i64, i64, i64, i64, i64, i64, i64, i64, i64, i64, i64 }
%struct.Map_SuperLibStruct_t_ = type { ptr, ptr, i32, i32, i32, i32, i32, ptr, ptr, ptr, [6 x [2 x i32]], [2 x i32], ptr, %struct.Map_TimeStruct_t_, float, float, ptr, ptr, ptr, ptr }

; Function Attrs: nounwind uwtable
define float @Map_TimeMatchWithInverter(ptr noundef %0, ptr noundef %1) #0 {
  %3 = alloca ptr, align 8
  %4 = alloca ptr, align 8
  %5 = alloca %struct.Map_TimeStruct_t_, align 4
  store ptr %0, ptr %3, align 8, !tbaa !17
  store ptr %1, ptr %4, align 8, !tbaa !3
  call void @llvm.lifetime.start.p0(i64 12, ptr %5) #7
  %6 = load ptr, ptr %4, align 8, !tbaa !3
  %7 = getelementptr inbounds nuw %struct.Map_MatchStruct_t_, ptr %6, i32 0, i32 4
  %8 = getelementptr inbounds nuw %struct.Map_TimeStruct_t_, ptr %7, i32 0, i32 0
  %9 = load float, ptr %8, align 8, !tbaa !14
  %10 = load ptr, ptr %3, align 8, !tbaa !17
  %11 = getelementptr inbounds nuw %struct.Map_ManStruct_t_, ptr %10, i32 0, i32 30
  %12 = load ptr, ptr %11, align 8, !tbaa !73
  %13 = getelementptr inbounds nuw %struct.Map_SuperLibStruct_t_, ptr %12, i32 0, i32 13
  %14 = getelementptr inbounds nuw %struct.Map_TimeStruct_t_, ptr %13, i32 0, i32 1
  %15 = load float, ptr %14, align 4, !tbaa !80
  %16 = fadd float %9, %15
  %17 = getelementptr inbounds nuw %struct.Map_TimeStruct_t_, ptr %5, i32 0, i32 1
  store float %16, ptr %17, align 4, !tbaa !67
  %18 = load ptr, ptr %4, align 8, !tbaa !3
  %19 = getelementptr inbounds nuw %struct.Map_MatchStruct_t_, ptr %18, i32 0, i32 4
  %20 = getelementptr inbounds nuw %struct.Map_TimeStruct_t_, ptr %19, i32 0, i32 1
  %21 = load float, ptr %20, align 4, !tbaa !15
  %22 = load ptr, ptr %3, align 8, !tbaa !17
  %23 = getelementptr inbounds nuw %struct.Map_ManStruct_t_, ptr %22, i32 0, i32 30
  %24 = load ptr, ptr %23, align 8, !tbaa !73
  %25 = getelementptr inbounds nuw %struct.Map_SuperLibStruct_t_, ptr %24, i32 0, i32 13
  %26 = getelementptr inbounds nuw %struct.Map_TimeStruct_t_, ptr %25, i32 0, i32 0
  %27 = load float, ptr %26, align 8, !tbaa !74
  %28 = fadd float %21, %27
  %29 = getelementptr inbounds nuw %struct.Map_TimeStruct_t_, ptr %5, i32 0, i32 0
  store float %28, ptr %29, align 4, !tbaa !68
  %30 = getelementptr inbounds nuw %struct.Map_TimeStruct_t_, ptr %5, i32 0, i32 0
  %31 = load float, ptr %30, align 4, !tbaa !68
  %32 = getelementptr inbounds nuw %struct.Map_TimeStruct_t_, ptr %5, i32 0, i32 1
  %33 = load float, ptr %32, align 4, !tbaa !67
  %34 = fcmp ogt float %31, %33
  br i1 %34, label %35, label %38

35:                                               ; preds = %2
  %36 = getelementptr inbounds nuw %struct.Map_TimeStruct_t_, ptr %5, i32 0, i32 0
  %37 = load float, ptr %36, align 4, !tbaa !68
  br label %41

38:                                               ; preds = %2
  %39 = getelementptr inbounds nuw %struct.Map_TimeStruct_t_, ptr %5, i32 0, i32 1
  %40 = load float, ptr %39, align 4, !tbaa !67
  br label %41

41:                                               ; preds = %38, %35
  %42 = phi float [ %37, %35 ], [ %40, %38 ]
  %43 = getelementptr inbounds nuw %struct.Map_TimeStruct_t_, ptr %5, i32 0, i32 2
  store float %42, ptr %43, align 4, !tbaa !56
  %44 = getelementptr inbounds nuw %struct.Map_TimeStruct_t_, ptr %5, i32 0, i32 2
  %45 = load float, ptr %44, align 4, !tbaa !56
  call void @llvm.lifetime.end.p0(i64 12, ptr %5) #7
  ret float %45
}