; Function Attrs: mustprogress nofree norecurse nosync nounwind willreturn memory(read, inaccessiblemem: none) uwtable
define float @Map_TimeMatchWithInverter(ptr noundef readonly captures(none) %0, ptr noundef readonly captures(none) %1) local_unnamed_addr #6 {
  %3 = getelementptr inbounds nuw i8, ptr %1, i64 24
  %4 = load float, ptr %3, align 8, !tbaa !12
  %5 = getelementptr inbounds nuw i8, ptr %0, i64 176
  %6 = load ptr, ptr %5, align 8, !tbaa !71
  %7 = getelementptr inbounds nuw i8, ptr %6, i64 128
  %8 = getelementptr inbounds nuw i8, ptr %6, i64 132
  %9 = load float, ptr %8, align 4, !tbaa !78
  %10 = fadd float %4, %9
  %11 = getelementptr inbounds nuw i8, ptr %1, i64 28
  %12 = load float, ptr %11, align 4, !tbaa !13
  %13 = load float, ptr %7, align 8, !tbaa !72
  %14 = fadd float %12, %13
  %15 = fcmp ogt float %14, %10
  %16 = select i1 %15, float %14, float %10
  ret float %16
}